target datalayout = "e-m:e-p270:32:32-p271:32:32-p272:64:64-i64:64-i128:128-f80:128-n8:16:32:64-S128"
target triple = "x86_64-pc-linux-gnu"

%class.rational = type { %class.mpq }
%class.mpq = type { %class.mpz, %class.mpz }
%class.mpz = type { i32, i8, ptr }
%class.symbol = type { ptr }
%"class.datalog::interval_relation_plugin" = type { %"class.datalog::relation_plugin.base", %class.scoped_dependency_manager, %class.old_interval, %class.arith_util }
%"class.datalog::relation_plugin.base" = type <{ %"class.datalog::tr_infrastructure<datalog::relation_traits>::plugin_object", i32 }>
%"class.datalog::tr_infrastructure<datalog::relation_traits>::plugin_object" = type { ptr, i32, %class.symbol, ptr }
%class.scoped_dependency_manager = type { [8 x i8], %"class.scoped_dependency_manager<void *>::config::allocator", %class.dependency_manager }
%"class.scoped_dependency_manager<void *>::config::allocator" = type { %class.region }
%class.region = type { ptr, ptr, ptr, ptr, ptr }
%class.dependency_manager = type { ptr, ptr, %class.ptr_vector }
%class.ptr_vector = type { %class.vector }
%class.vector = type { ptr }
%class.old_interval = type { ptr, %class.ext_numeral, %class.ext_numeral, i8, i8, ptr, ptr }
%class.ext_numeral = type { i32, %class.rational }
%class.arith_util = type { ptr, ptr }

; Function Attrs: mustprogress nounwind uwtable
define linkonce_odr hidden noundef nonnull align 8 dereferenceable(72) ptr @_ZNK7datalog24interval_relation_plugin3depEv(ptr noundef nonnull align 8 dereferenceable(240) %0) #7 comdat align 2 {
  %2 = alloca ptr, align 8
  store ptr %0, ptr %2, align 8, !tbaa !3
  %3 = load ptr, ptr %2, align 8
  %4 = getelementptr inbounds nuw %"class.datalog::interval_relation_plugin", ptr %3, i32 0, i32 1
  ret ptr %4
}

; Function Attrs: mustprogress uwtable
define hidden void @_ZN7datalog17interval_relationC2ERNS_24interval_relation_pluginERKNS_18relation_signatureEb(ptr noundef nonnull align 8 dereferenceable(224) %0, ptr noundef nonnull align 8 dereferenceable(240) %1, ptr noundef nonnull align 8 dereferenceable(8) %2, i1 noundef zeroext %3) unnamed_addr #4 align 2 personality ptr @__gxx_personality_v0 {
  %5 = alloca ptr, align 8
  %6 = alloca ptr, align 8
  %7 = alloca ptr, align 8
  %8 = alloca i8, align 1
  %9 = alloca %class.old_interval, align 8
  %10 = alloca ptr, align 8
  %11 = alloca i32, align 4
  store ptr %0, ptr %5, align 8, !tbaa !99
  store ptr %1, ptr %6, align 8, !tbaa !3
  store ptr %2, ptr %7, align 8, !tbaa !31
  %12 = zext i1 %3 to i8
  store i8 %12, ptr %8, align 1, !tbaa !60
  %13 = load ptr, ptr %5, align 8
  %14 = load ptr, ptr %6, align 8, !tbaa !3
  %15 = load ptr, ptr %7, align 8, !tbaa !31
  %16 = load i8, ptr %8, align 1, !tbaa !60, !range !62, !noundef !63
  %17 = trunc i8 %16 to i1
  call void @llvm.lifetime.start.p0(i64 112, ptr %9) #3
  %18 = load ptr, ptr %6, align 8, !tbaa !3
  %19 = call noundef nonnull align 8 dereferenceable(72) ptr @_ZNK7datalog24interval_relation_plugin3depEv(ptr noundef nonnull align 8 dereferenceable(240) %18)
  call void @_ZN12old_intervalC1ER25scoped_dependency_managerIPvE(ptr noundef nonnull align 8 dereferenceable(112) %9, ptr noundef nonnull align 8 dereferenceable(72) %19)
  invoke void @_ZN7datalog15vector_relationI12old_intervalNS_22vector_relation_helperIS1_EEEC2ERNS_15relation_pluginERKNS_18relation_signatureEbRKS1_(ptr noundef nonnull align 8 dereferenceable(224) %13, ptr noundef nonnull align 8 dereferenceable(36) %14, ptr noundef nonnull align 8 dereferenceable(8) %15, i1 noundef zeroext %17, ptr noundef nonnull align 8 dereferenceable(112) %9)
          to label %20 unwind label %21

20:                                               ; preds = %4
  call void @_ZN12old_intervalD2Ev(ptr noundef nonnull align 8 dereferenceable(112) %9) #3
  call void @llvm.lifetime.end.p0(i64 112, ptr %9) #3
  store ptr getelementptr inbounds inrange(-16, 232) ({ [31 x ptr] }, ptr @_ZTVN7datalog17interval_relationE, i32 0, i32 0, i32 2), ptr %13, align 8, !tbaa !10
  ret void

21:                                               ; preds = %4
  %22 = landingpad { ptr, i32 }
          cleanup
  %23 = extractvalue { ptr, i32 } %22, 0
  store ptr %23, ptr %10, align 8
  %24 = extractvalue { ptr, i32 } %22, 1
  store i32 %24, ptr %11, align 4
  call void @_ZN12old_intervalD2Ev(ptr noundef nonnull align 8 dereferenceable(112) %9) #3
  call void @llvm.lifetime.end.p0(i64 112, ptr %9) #3
  br label %25

25:                                               ; preds = %21
  %26 = load ptr, ptr %10, align 8
  %27 = load i32, ptr %11, align 4
  %28 = insertvalue { ptr, i32 } poison, ptr %26, 0
  %29 = insertvalue { ptr, i32 } %28, i32 %27, 1
  resume { ptr, i32 } %29
}