; Function Attrs: mustprogress uwtable
define hidden void @_ZN7datalog17interval_relationC2ERNS_24interval_relation_pluginERKNS_18relation_signatureEb(ptr noundef nonnull align 8 dereferenceable(224) %0, ptr noundef nonnull align 8 dereferenceable(240) %1, ptr noundef nonnull align 8 dereferenceable(8) %2, i1 noundef zeroext %3) unnamed_addr #3 align 2 personality ptr @__gxx_personality_v0 {
  %5 = alloca %class.old_interval, align 8
  call void @llvm.lifetime.start.p0(i64 112, ptr nonnull %5) #25
  %6 = getelementptr inbounds nuw i8, ptr %1, i64 40
  call void @_ZN12old_intervalC1ER25scoped_dependency_managerIPvE(ptr noundef nonnull align 8 dereferenceable(112) %5, ptr noundef nonnull align 8 dereferenceable(72) %6)
  invoke void @_ZN7datalog15vector_relationI12old_intervalNS_22vector_relation_helperIS1_EEEC2ERNS_15relation_pluginERKNS_18relation_signatureEbRKS1_(ptr noundef nonnull align 8 dereferenceable(224) %0, ptr noundef nonnull align 8 dereferenceable(36) %1, ptr noundef nonnull align 8 dereferenceable(8) %2, i1 noundef zeroext %3, ptr noundef nonnull align 8 dereferenceable(112) %5)
          to label %7 unwind label %20

7:                                                ; preds = %4
  %8 = getelementptr inbounds nuw i8, ptr %5, i64 56
  %9 = load ptr, ptr @_ZN8rational13g_mpq_managerE, align 8, !tbaa !28
  invoke void @_ZN11mpz_managerILb1EE3delEPS0_R3mpz(ptr noundef %9, ptr noundef nonnull align 8 dereferenceable(32) %8)
          to label %.noexc.i.i.i unwind label %11

.noexc.i.i.i:                                     ; preds = %7
  %10 = getelementptr inbounds nuw i8, ptr %5, i64 72
  invoke void @_ZN11mpz_managerILb1EE3delEPS0_R3mpz(ptr noundef %9, ptr noundef nonnull align 8 dereferenceable(16) %10)
          to label %_ZN11ext_numeralD2Ev.exit.i unwind label %11

11:                                               ; preds = %.noexc.i.i.i, %7
  %12 = landingpad { ptr, i32 }
          catch ptr null
  %13 = extractvalue { ptr, i32 } %12, 0
  call void @__clang_call_terminate(ptr %13) #26
  unreachable

_ZN11ext_numeralD2Ev.exit.i:                      ; preds = %.noexc.i.i.i
  %14 = getelementptr inbounds nuw i8, ptr %5, i64 16
  %15 = load ptr, ptr @_ZN8rational13g_mpq_managerE, align 8, !tbaa !28
  invoke void @_ZN11mpz_managerILb1EE3delEPS0_R3mpz(ptr noundef %15, ptr noundef nonnull align 8 dereferenceable(32) %14)
          to label %.noexc.i.i1.i unwind label %17

.noexc.i.i1.i:                                    ; preds = %_ZN11ext_numeralD2Ev.exit.i
  %16 = getelementptr inbounds nuw i8, ptr %5, i64 32
  invoke void @_ZN11mpz_managerILb1EE3delEPS0_R3mpz(ptr noundef %15, ptr noundef nonnull align 8 dereferenceable(16) %16)
          to label %_ZN12old_intervalD2Ev.exit unwind label %17

17:                                               ; preds = %.noexc.i.i1.i, %_ZN11ext_numeralD2Ev.exit.i
  %18 = landingpad { ptr, i32 }
          catch ptr null
  %19 = extractvalue { ptr, i32 } %18, 0
  call void @__clang_call_terminate(ptr %19) #26
  unreachable

_ZN12old_intervalD2Ev.exit:                       ; preds = %.noexc.i.i1.i
  call void @llvm.lifetime.end.p0(i64 112, ptr nonnull %5) #25
  store ptr getelementptr inbounds nuw inrange(-16, 232) (i8, ptr @_ZTVN7datalog17interval_relationE, i64 16), ptr %0, align 8, !tbaa !17
  ret void

20:                                               ; preds = %4
  %21 = landingpad { ptr, i32 }
          cleanup
  call void @_ZN12old_intervalD2Ev(ptr noundef nonnull align 8 dereferenceable(112) %5) #25
  call void @llvm.lifetime.end.p0(i64 112, ptr nonnull %5) #25
  resume { ptr, i32 } %21
}